; Function Attrs: mustprogress nounwind uwtable
define dso_local { i32, ptr } @_ZN4llvm3sys2fs13make_absoluteERNS_15SmallVectorImplIcEE(ptr noundef nonnull align 8 dereferenceable(24) %0) local_unnamed_addr #0 {
  %2 = alloca %"class.llvm::Twine", align 8
  %3 = alloca %"class.llvm::SmallString.10", align 8
  %4 = alloca %"class.llvm::Twine", align 8
  %5 = getelementptr inbounds nuw i8, ptr %2, i64 32
  store i8 5, ptr %5, align 8
  %6 = getelementptr inbounds nuw i8, ptr %2, i64 33
  store i8 1, ptr %6, align 1
  %7 = load ptr, ptr %0, align 8
  store ptr %7, ptr %2, align 8
  %8 = tail call noundef i64 @_ZNK4llvm15SmallVectorBaseImE4sizeEv(ptr noundef nonnull align 8 dereferenceable(24) %0) #30
  %9 = getelementptr inbounds nuw i8, ptr %2, i64 8
  store i64 %8, ptr %9, align 8
  %10 = call noundef zeroext i1 @_ZN4llvm3sys4path11is_absoluteERKNS_5TwineENS1_5StyleE(ptr noundef nonnull align 8 dereferenceable(34) %2, i32 noundef 0)
  br i1 %10, label %11, label %13

11:                                               ; preds = %1
  %12 = tail call noundef nonnull align 8 dereferenceable(8) ptr @_ZNSt3_V215system_categoryEv() #33
  br label %_ZN4llvm11SmallStringILj128EED2Ev.exit

13:                                               ; preds = %1
  %14 = getelementptr inbounds i8, ptr %3, i64 24
  call void @_ZN4llvm15SmallVectorBaseImEC2EPvm(ptr noundef nonnull align 8 dereferenceable(24) %3, ptr noundef nonnull %14, i64 noundef 128) #30
  %15 = call { i32, ptr } @_ZN4llvm3sys2fs12current_pathERNS_15SmallVectorImplIcEE(ptr noundef nonnull align 8 dereferenceable(24) %3)
  %16 = extractvalue { i32, ptr } %15, 0
  %17 = extractvalue { i32, ptr } %15, 1
  %.not = icmp eq i32 %16, 0
  br i1 %.not, label %18, label %25

18:                                               ; preds = %13
  %19 = getelementptr inbounds nuw i8, ptr %4, i64 32
  store i8 5, ptr %19, align 8
  %20 = getelementptr inbounds nuw i8, ptr %4, i64 33
  store i8 1, ptr %20, align 1
  %21 = load ptr, ptr %3, align 8
  store ptr %21, ptr %4, align 8
  %22 = call noundef i64 @_ZNK4llvm15SmallVectorBaseImE4sizeEv(ptr noundef nonnull align 8 dereferenceable(24) %3) #30
  %23 = getelementptr inbounds nuw i8, ptr %4, i64 8
  store i64 %22, ptr %23, align 8
  call void @_ZN4llvm3sys2fs13make_absoluteERKNS_5TwineERNS_15SmallVectorImplIcEE(ptr noundef nonnull align 8 dereferenceable(34) %4, ptr noundef nonnull align 8 dereferenceable(24) %0)
  %24 = tail call noundef nonnull align 8 dereferenceable(8) ptr @_ZNSt3_V215system_categoryEv() #33
  br label %25

25:                                               ; preds = %13, %18
  %.sroa.5.1 = phi ptr [ %17, %13 ], [ %24, %18 ]
  %26 = call noundef i64 @_ZNK4llvm15SmallVectorBaseImE4sizeEv(ptr noundef nonnull align 8 dereferenceable(24) %3) #30
  %27 = load ptr, ptr %3, align 8
  %28 = icmp eq ptr %27, %14
  br i1 %28, label %_ZN4llvm11SmallStringILj128EED2Ev.exit, label %29

29:                                               ; preds = %25
  call void @free(ptr noundef %27) #30
  br label %_ZN4llvm11SmallStringILj128EED2Ev.exit

_ZN4llvm11SmallStringILj128EED2Ev.exit:           ; preds = %29, %25, %11
  %.sroa.5.0 = phi ptr [ %12, %11 ], [ %.sroa.5.1, %25 ], [ %.sroa.5.1, %29 ]
  %.sroa.0.0 = phi i32 [ 0, %11 ], [ %16, %25 ], [ %16, %29 ]
  %.fca.0.insert = insertvalue { i32, ptr } poison, i32 %.sroa.0.0, 0
  %.fca.1.insert = insertvalue { i32, ptr } %.fca.0.insert, ptr %.sroa.5.0, 1
  ret { i32, ptr } %.fca.1.insert
}